ccopy_reg
_reconstructor
p0
(canytree.node
Node
p1
c__builtin__
object
p2
Ntp3
Rp4
(dp5
S'_parent'
p6
NsS'_NodeMixin__children'
p7
(lp8
g0
(g1
g2
Ntp9
Rp10
(dp11
g6
g4
sg7
(lp12
sS'_name'
p13
(i__main__
id_node
p14
(dp15
S'status'
p16
S'old'
p17
sS'id'
p18
I14115395
sbsbag0
(g1
g2
Ntp19
Rp20
(dp21
g6
g4
sg7
(lp22
sg13
(i__main__
id_node
p23
(dp24
g16
g17
sg18
I14115391
sbsbag0
(g1
g2
Ntp25
Rp26
(dp27
g6
g4
sg7
(lp28
sg13
(i__main__
id_node
p29
(dp30
g16
g17
sg18
I14116800
sbsbag0
(g1
g2
Ntp31
Rp32
(dp33
g6
g4
sg7
(lp34
g0
(g1
g2
Ntp35
Rp36
(dp37
g6
g32
sg7
(lp38
g0
(g1
g2
Ntp39
Rp40
(dp41
g6
g36
sg7
(lp42
sg13
(i__main__
id_node
p43
(dp44
g16
g17
sg18
I14119930
sbsbag0
(g1
g2
Ntp45
Rp46
(dp47
g6
g36
sg7
(lp48
sg13
(i__main__
id_node
p49
(dp50
g16
g17
sg18
I14116376
sbsbasg13
(i__main__
id_node
p51
(dp52
g16
g17
sg18
I14116307
sbsbag0
(g1
g2
Ntp53
Rp54
(dp55
g6
g32
sg7
(lp56
sg13
(i__main__
id_node
p57
(dp58
g16
g17
sg18
I14115377
sbsbasg13
(i__main__
id_node
p59
(dp60
g16
g17
sg18
I14115109
sbsbag0
(g1
g2
Ntp61
Rp62
(dp63
g6
g4
sg7
(lp64
sg13
(i__main__
id_node
p65
(dp66
g16
g17
sg18
I14115656
sbsbag0
(g1
g2
Ntp67
Rp68
(dp69
g6
g4
sg7
(lp70
sg13
(i__main__
id_node
p71
(dp72
g16
g17
sg18
I14115644
sbsbag0
(g1
g2
Ntp73
Rp74
(dp75
g6
g4
sg7
(lp76
sg13
(i__main__
id_node
p77
(dp78
g16
g17
sg18
I14115302
sbsbag0
(g1
g2
Ntp79
Rp80
(dp81
g6
g4
sg7
(lp82
sg13
(i__main__
id_node
p83
(dp84
g16
g17
sg18
I14115640
sbsbag0
(g1
g2
Ntp85
Rp86
(dp87
g6
g4
sg7
(lp88
sg13
(i__main__
id_node
p89
(dp90
g16
g17
sg18
I14115368
sbsbag0
(g1
g2
Ntp91
Rp92
(dp93
g6
g4
sg7
(lp94
sg13
(i__main__
id_node
p95
(dp96
g16
g17
sg18
I14115612
sbsbag0
(g1
g2
Ntp97
Rp98
(dp99
g6
g4
sg7
(lp100
sg13
(i__main__
id_node
p101
(dp102
g16
g17
sg18
I14115453
sbsbag0
(g1
g2
Ntp103
Rp104
(dp105
g6
g4
sg7
(lp106
sg13
(i__main__
id_node
p107
(dp108
g16
g17
sg18
I14115373
sbsbag0
(g1
g2
Ntp109
Rp110
(dp111
g6
g4
sg7
(lp112
g0
(g1
g2
Ntp113
Rp114
(dp115
g6
g110
sg7
(lp116
sg13
(i__main__
id_node
p117
(dp118
g16
g17
sg18
I14117340
sbsbasg13
(i__main__
id_node
p119
(dp120
g16
g17
sg18
I14116081
sbsbag0
(g1
g2
Ntp121
Rp122
(dp123
g6
g4
sg7
(lp124
g0
(g1
g2
Ntp125
Rp126
(dp127
g6
g122
sg7
(lp128
g0
(g1
g2
Ntp129
Rp130
(dp131
g6
g126
sg7
(lp132
sg13
(i__main__
id_node
p133
(dp134
g16
g17
sg18
I14116857
sbsbasg13
(i__main__
id_node
p135
(dp136
g16
g17
sg18
I14116007
sbsbag0
(g1
g2
Ntp137
Rp138
(dp139
g6
g122
sg7
(lp140
sg13
(i__main__
id_node
p141
(dp142
g16
g17
sg18
I14116036
sbsbag0
(g1
g2
Ntp143
Rp144
(dp145
g6
g122
sg7
(lp146
sg13
(i__main__
id_node
p147
(dp148
g16
g17
sg18
I14116115
sbsbag0
(g1
g2
Ntp149
Rp150
(dp151
g6
g122
sg7
(lp152
g0
(g1
g2
Ntp153
Rp154
(dp155
g6
g150
sg7
(lp156
g0
(g1
g2
Ntp157
Rp158
(dp159
g6
g154
sg7
(lp160
sg13
(i__main__
id_node
p161
(dp162
g16
g17
sg18
I14119038
sbsbag0
(g1
g2
Ntp163
Rp164
(dp165
g6
g154
sg7
(lp166
sg13
(i__main__
id_node
p167
(dp168
g16
g17
sg18
I14117531
sbsbasg13
(i__main__
id_node
p169
(dp170
g16
g17
sg18
I14116733
sbsbasg13
(i__main__
id_node
p171
(dp172
g16
g17
sg18
I14116116
sbsbasg13
(i__main__
id_node
p173
(dp174
g16
g17
sg18
I14115815
sbsbasg13
(i__main__
id_node
p175
(dp176
g16
g17
sg18
S'14115033'
p177
sbsb.